target datalayout = "e-m:e-p270:32:32-p271:32:32-p272:64:64-i64:64-i128:128-f80:128-n8:16:32:64-S128"
target triple = "x86_64-pc-linux-gnu"

%"struct.duckdb_libpgquery::yyguts_t" = type { ptr, ptr, ptr, i64, i64, ptr, i8, i64, i64, ptr, i32, i32, i32, i32, i32, ptr, i32, ptr, i32, i32, ptr, i32, i32, ptr, ptr }
%"struct.duckdb_libpgquery::core_yy_extra_type" = type { ptr, i64, ptr, i32, i32, i8, i8, ptr, i32, i32, i32, ptr, i32, i8, i8 }

; Function Attrs: mustprogress uwtable
define hidden void @_ZN17duckdb_libpgquery14scanner_finishEPv(ptr noundef %0) #0 {
  %2 = alloca ptr, align 8
  store ptr %0, ptr %2, align 8, !tbaa !10
  %3 = load ptr, ptr %2, align 8, !tbaa !10
  %4 = getelementptr inbounds nuw %"struct.duckdb_libpgquery::yyguts_t", ptr %3, i32 0, i32 0
  %5 = load ptr, ptr %4, align 8, !tbaa !43
  %6 = getelementptr inbounds nuw %"struct.duckdb_libpgquery::core_yy_extra_type", ptr %5, i32 0, i32 1
  %7 = load i64, ptr %6, align 8, !tbaa !108
  %8 = icmp uge i64 %7, 8192
  br i1 %8, label %9, label %15

9:                                                ; preds = %1
  %10 = load ptr, ptr %2, align 8, !tbaa !10
  %11 = getelementptr inbounds nuw %"struct.duckdb_libpgquery::yyguts_t", ptr %10, i32 0, i32 0
  %12 = load ptr, ptr %11, align 8, !tbaa !43
  %13 = getelementptr inbounds nuw %"struct.duckdb_libpgquery::core_yy_extra_type", ptr %12, i32 0, i32 0
  %14 = load ptr, ptr %13, align 8, !tbaa !44
  call void @_ZN17duckdb_libpgquery5pfreeEPv(ptr noundef %14)
  br label %15

15:                                               ; preds = %9, %1
  %16 = load ptr, ptr %2, align 8, !tbaa !10
  %17 = getelementptr inbounds nuw %"struct.duckdb_libpgquery::yyguts_t", ptr %16, i32 0, i32 0
  %18 = load ptr, ptr %17, align 8, !tbaa !43
  %19 = getelementptr inbounds nuw %"struct.duckdb_libpgquery::core_yy_extra_type", ptr %18, i32 0, i32 9
  %20 = load i32, ptr %19, align 4, !tbaa !80
  %21 = icmp sge i32 %20, 8192
  br i1 %21, label %22, label %28

22:                                               ; preds = %15
  %23 = load ptr, ptr %2, align 8, !tbaa !10
  %24 = getelementptr inbounds nuw %"struct.duckdb_libpgquery::yyguts_t", ptr %23, i32 0, i32 0
  %25 = load ptr, ptr %24, align 8, !tbaa !43
  %26 = getelementptr inbounds nuw %"struct.duckdb_libpgquery::core_yy_extra_type", ptr %25, i32 0, i32 7
  %27 = load ptr, ptr %26, align 8, !tbaa !61
  call void @_ZN17duckdb_libpgquery5pfreeEPv(ptr noundef %27)
  br label %28

28:                                               ; preds = %22, %15
  ret void
}